cnumpy.core.multiarray
_reconstruct
p1
(cnumpy
ndarray
p2
(I0
tS'b'
tRp3
(I1
(I5
I365
I5
tcnumpy
dtype
p4
(S'O8'
I0
I1
tRp5
(I3
S'|'
NNNI-1
I-1
I63
tbI00
(lp6
F0
aF0
aF0
aF0
aI01
aF0
aF0
aF0
aF0
aI01
aF0
aF0
aF0
aF0
aI01
aF0
aF0
aF0
aF0
aI01
aF0
aF0
aF0
aF0
aI01
aF0
aF0
aF0
aF0
aI01
aF0
aF0
aF0
aF0
aI01
aF0
aF0
aF0
aF0
aI01
aF0
aF0
aF0
aF0
aI01
aF0
aF0
aF0
aF0
aI01
aF0
aF0
aF0
aF0
aI01
aF0
aF0
aF0
aF0
aI01
aF0
aF0
aF0
aF0
aI01
aF0
aF0
aF0
aF0
aI01
aF0
aF0
aF0
aF0
aI01
aF0
aF0
aF0
aF0
aI01
aF0
aF0
aF0
aF0
aI01
aF0
aF0
aF0
aF0
aI01
aF0
aF0
aF0
aF0
aI01
aF0
aF0
aF0
aF0
aI01
aF0
aF0
aF0
aF0
aI01
aF0
aF0
aF0
aF0
aI01
aF0
aF0
aF0
aF0
aI01
aF0
aF0
aF0
aF0
aI01
aF0
aF0
aF0
aF0
aI01
aF0
aF0
aF0
aF0
aI01
aF0
aF0
aF0
aF0
aI01
aF0
aF0
aF0
aF0
aI01
aF0
aF0
aF0
aF0
aI01
aF0
aF0
aF0
aF0
aI01
aF0
aF0
aF0
aF0
aI01
aF0
aF0
aF0
aF0
aI01
aF0
aF0
aF0
aF0
aI01
aF0
aF0
aF0
aF0
aI01
aF0
aF0
aF0
aF0
aI01
aF0
aF0
aF0
aF0
aI01
aF0
aF0
aF0
aF0
aI01
aF0
aF0
aF0
aF0
aI01
aF0
aF0
aF0
aF0
aI01
aF0
aF0
aF0
aF0
aI00
aF0
aF5.4699999999999998
aF4.4400000000000004
aF83.090000000000003
aI01
aF0
aF0
aF0
aF0
aI01
aF0
aF0
aF0
aF0
aI01
aF0
aF0
aF0
aF0
aI01
aF0
aF0
aF0
aF0
aI01
aF0
aF0
aF0
aF0
aI01
aF0
aF0
aF0
aF0
aI01
aF0
aF0
aF0
aF0
aI01
aF0
aF0
aF0
aF0
aI01
aF0
aF0
aF0
aF0
aI00
aF0
aF0
aF0
aF85.430000000000007
aI01
aF0
aF0
aF0
aF0
aI01
aF0
aF0
aF0
aF0
aI01
aF0
aF0
aF0
aF0
aI01
aF0
aF0
aF0
aF0
aI01
aF0
aF0
aF0
aF0
aI01
aF0
aF0
aF0
aF0
aI00
aF0
aF3.5299999999999998
aF0
aF66.540000000000006
aI01
aF0
aF0
aF0
aF0
aI01
aF0
aF0
aF0
aF0
aI01
aF0
aF0
aF0
aF0
aI01
aF0
aF0
aF0
aF0
aI01
aF0
aF0
aF0
aF0
aI01
aF0
aF0
aF0
aF0
aI01
aF0
aF0
aF0
aF0
aI01
aF0
aF0
aF0
aF0
aI01
aF0
aF0
aF0
aF0
aI01
aF0
aF0
aF0
aF0
aI01
aF0
aF0
aF0
aF0
aI01
aF0
aF0
aF0
aF0
aI01
aF0
aF0
aF0
aF0
aI01
aF0
aF0
aF0
aF0
aI01
aF0
aF0
aF0
aF0
aI00
aF0
aF0
aF0
aF38.619999999999997
aI01
aF0
aF0
aF0
aF0
aI01
aF0
aF0
aF0
aF0
aI01
aF0
aF0
aF0
aF0
aI01
aF0
aF0
aF0
aF0
aI01
aF0
aF0
aF0
aF0
aI01
aF0
aF0
aF0
aF0
aI00
aF0
aF0
aF0
aF151.18000000000001
aI01
aF0
aF0
aF0
aF0
aI01
aF0
aF0
aF0
aF0
aI01
aF0
aF0
aF0
aF0
aI01
aF0
aF0
aF0
aF0
aI00
aF0
aF0
aF81.819999999999993
aF134.56999999999999
aI01
aF0
aF0
aF0
aF0
aI00
aF0
aF0
aF0
aF60.460000000000001
aI01
aF0
aF0
aF0
aF0
aI01
aF0
aF0
aF0
aF0
aI01
aF0
aF0
aF0
aF0
aI01
aF0
aF0
aF0
aF0
aI01
aF0
aF0
aF0
aF0
aI01
aF0
aF0
aF0
aF0
aI00
aF0
aF7.0499999999999998
aF0
aF26.77
aI01
aF0
aF0
aF0
aF0
aI01
aF0
aF0
aF0
aF0
aI01
aF0
aF0
aF0
aF0
aI01
aF0
aF0
aF0
aF0
aI00
aF0
aF4.4900000000000002
aF0
aF12.800000000000001
aI01
aF0
aF0
aF0
aF0
aI00
aF0
aF11.039999999999999
aF0
aF17.280000000000001
aI01
aF0
aF0
aF0
aF0
aI01
aF0
aF0
aF0
aF0
aI01
aF0
aF0
aF0
aF0
aI01
aF0
aF0
aF0
aF0
aI01
aF0
aF0
aF0
aF0
aI01
aF0
aF0
aF0
aF0
aI01
aF0
aF0
aF0
aF0
aI00
aF0
aF0
aF0
aF19.920000000000002
aI00
aF0
aF0
aF0
aF11.779999999999999
aI01
aF0
aF0
aF0
aF0
aI01
aF0
aF0
aF0
aF0
aI01
aF0
aF0
aF0
aF0
aI01
aF0
aF0
aF0
aF0
aI00
aF0
aF0
aF0
aF7.0700000000000003
aI01
aF0
aF0
aF0
aF0
aI01
aF0
aF0
aF0
aF0
aI01
aF0
aF0
aF0
aF0
aI01
aF0
aF0
aF0
aF0
aI01
aF0
aF0
aF0
aF0
aI01
aF0
aF0
aF0
aF0
aI00
aF0
aF29.75
aF0
aF41.350000000000001
aI01
aF0
aF0
aF0
aF0
aI01
aF0
aF0
aF0
aF0
aI01
aF0
aF0
aF0
aF0
aI01
aF0
aF0
aF0
aF0
aI01
aF0
aF0
aF0
aF0
aI01
aF0
aF0
aF0
aF0
aI01
aF0
aF0
aF0
aF0
aI01
aF0
aF0
aF0
aF0
aI01
aF0
aF0
aF0
aF0
aI01
aF0
aF0
aF0
aF0
aI01
aF0
aF0
aF0
aF0
aI01
aF0
aF0
aF0
aF0
aI01
aF0
aF0
aF0
aF0
aI00
aF0
aF0
aF0
aF16.329999999999998
aI01
aF0
aF0
aF0
aF0
aI01
aF0
aF0
aF0
aF0
aI01
aF0
aF0
aF0
aF0
aI01
aF0
aF0
aF0
aF0
aI01
aF0
aF0
aF0
aF0
aI01
aF0
aF0
aF0
aF0
aI00
aF0
aF0
aF0
aF12.94
aI01
aF0
aF0
aF0
aF0
aI01
aF0
aF0
aF0
aF0
aI01
aF0
aF0
aF0
aF0
aI01
aF0
aF0
aF0
aF0
aI01
aF0
aF0
aF0
aF0
aI01
aF0
aF0
aF0
aF0
aI00
aF0
aF0
aF0
aF93.540000000000006
aI01
aF0
aF0
aF0
aF0
aI00
aF0
aF0
aF0
aF33.960000000000001
aI01
aF0
aF0
aF0
aF0
aI01
aF0
aF0
aF0
aF0
aI01
aF0
aF0
aF0
aF0
aI01
aF0
aF0
aF0
aF0
aI00
aF0
aF6.5800000000000001
aF0
aF17.530000000000001
aI01
aF0
aF0
aF0
aF0
aI01
aF0
aF0
aF0
aF0
aI01
aF0
aF0
aF0
aF0
aI01
aF0
aF0
aF0
aF0
aI01
aF0
aF0
aF0
aF0
aI01
aF0
aF0
aF0
aF0
aI01
aF0
aF0
aF0
aF0
aI01
aF0
aF0
aF0
aF0
aI01
aF0
aF0
aF0
aF0
aI01
aF0
aF0
aF0
aF0
aI01
aF0
aF0
aF0
aF0
aI01
aF0
aF0
aF0
aF0
aI01
aF0
aF0
aF0
aF0
aI01
aF0
aF0
aF0
aF0
aI01
aF0
aF0
aF0
aF0
aI01
aF0
aF0
aF0
aF0
aI01
aF0
aF0
aF0
aF0
aI01
aF0
aF0
aF0
aF0
aI00
aF0
aF20.190000000000001
aF2.3700000000000001
aF161.94999999999999
aI01
aF0
aF0
aF0
aF0
aI00
aF0
aF6.3600000000000003
aF0
aF6.3600000000000003
aI01
aF0
aF0
aF0
aF0
aI00
aF0
aF1.72
aF49.899999999999999
aF68.950000000000003
aI01
aF0
aF0
aF0
aF0
aI01
aF0
aF0
aF0
aF0
aI00
aF0
aF0
aF0
aF15.23
aI01
aF0
aF0
aF0
aF0
aI00
aF0
aF0
aF0
aF50.700000000000003
aI01
aF0
aF0
aF0
aF0
aI01
aF0
aF0
aF0
aF0
aI01
aF0
aF0
aF0
aF0
aI01
aF0
aF0
aF0
aF0
aI01
aF0
aF0
aF0
aF0
aI00
aF0
aF0
aF0
aF33.799999999999997
aI01
aF0
aF0
aF0
aF0
aI01
aF0
aF0
aF0
aF0
aI01
aF0
aF0
aF0
aF0
aI01
aF0
aF0
aF0
aF0
aI01
aF0
aF0
aF0
aF0
aI01
aF0
aF0
aF0
aF0
aI01
aF0
aF0
aF0
aF0
aI01
aF0
aF0
aF0
aF0
aI01
aF0
aF0
aF0
aF0
aI01
aF0
aF0
aF0
aF0
aI01
aF0
aF0
aF0
aF0
aI01
aF0
aF0
aF0
aF0
aI01
aF0
aF0
aF0
aF0
aI01
aF0
aF0
aF0
aF0
aI00
aF0
aF0
aF0
aF18.870000000000001
aI01
aF0
aF0
aF0
aF0
aI01
aF0
aF0
aF0
aF0
aI01
aF0
aF0
aF0
aF0
aI01
aF0
aF0
aF0
aF0
aI01
aF0
aF0
aF0
aF0
aI01
aF0
aF0
aF0
aF0
aI00
aF0
aF0
aF0
aF19.93
aI01
aF0
aF0
aF0
aF0
aI01
aF0
aF0
aF0
aF0
aI01
aF0
aF0
aF0
aF0
aI01
aF0
aF0
aF0
aF0
aI01
aF0
aF0
aF0
aF0
aI01
aF0
aF0
aF0
aF0
aI01
aF0
aF0
aF0
aF0
aI01
aF0
aF0
aF0
aF0
aI01
aF0
aF0
aF0
aF0
aI01
aF0
aF0
aF0
aF0
aI01
aF0
aF0
aF0
aF0
aI01
aF0
aF0
aF0
aF0
aI01
aF0
aF0
aF0
aF0
aI00
aF0
aF0
aF0
aF9.3599999999999994
aI01
aF0
aF0
aF0
aF0
aI01
aF0
aF0
aF0
aF0
aI01
aF0
aF0
aF0
aF0
aI01
aF0
aF0
aF0
aF0
aI01
aF0
aF0
aF0
aF0
aI01
aF0
aF0
aF0
aF0
aI00
aF0
aF0
aF0
aF7.9400000000000004
aI01
aF0
aF0
aF0
aF0
aI01
aF0
aF0
aF0
aF0
aI01
aF0
aF0
aF0
aF0
aI01
aF0
aF0
aF0
aF0
aI01
aF0
aF0
aF0
aF0
aI01
aF0
aF0
aF0
aF0
aI01
aF0
aF0
aF0
aF0
aI01
aF0
aF0
aF0
aF0
aI01
aF0
aF0
aF0
aF0
aI01
aF0
aF0
aF0
aF0
aI01
aF0
aF0
aF0
aF0
aI01
aF0
aF0
aF0
aF0
aI01
aF0
aF0
aF0
aF0
aI00
aF0
aF0
aF0
aF7.4199999999999999
aI00
aF0
aF0
aF0
aF11.800000000000001
aI01
aF0
aF0
aF0
aF0
aI01
aF0
aF0
aF0
aF0
aI01
aF0
aF0
aF0
aF0
aI01
aF0
aF0
aF0
aF0
aI01
aF0
aF0
aF0
aF0
aI01
aF0
aF0
aF0
aF0
aI01
aF0
aF0
aF0
aF0
aI01
aF0
aF0
aF0
aF0
aI01
aF0
aF0
aF0
aF0
aI01
aF0
aF0
aF0
aF0
aI01
aF0
aF0
aF0
aF0
aI01
aF0
aF0
aF0
aF0
aI01
aF0
aF0
aF0
aF0
aI01
aF0
aF0
aF0
aF0
aI01
aF0
aF0
aF0
aF0
aI01
aF0
aF0
aF0
aF0
aI01
aF0
aF0
aF0
aF0
aI01
aF0
aF0
aF0
aF0
aI01
aF0
aF0
aF0
aF0
aI01
aF0
aF0
aF0
aF0
aI01
aF0
aF0
aF0
aF0
aI01
aF0
aF0
aF0
aF0
aI01
aF0
aF0
aF0
aF0
aI01
aF0
aF0
aF0
aF0
aI01
aF0
aF0
aF0
aF0
aI01
aF0
aF0
aF0
aF0
aI01
aF0
aF0
aF0
aF0
aI01
aF0
aF0
aF0
aF0
aI01
aF0
aF0
aF0
aF0
aI01
aF0
aF0
aF0
aF0
aI01
aF0
aF0
aF0
aF0
aI01
aF0
aF0
aF0
aF0
aI01
aF0
aF0
aF0
aF0
aI01
aF0
aF0
aF0
aF0
aI01
aF0
aF0
aF0
aF0
aI01
aF0
aF0
aF0
aF0
aI00
aF0
aF16.800000000000001
aF0
aF106.06
aI01
aF0
aF0
aF0
aF0
aI01
aF0
aF0
aF0
aF0
aI01
aF0
aF0
aF0
aF0
aI01
aF0
aF0
aF0
aF0
aI01
aF0
aF0
aF0
aF0
aI01
aF0
aF0
aF0
aF0
aI01
aF0
aF0
aF0
aF0
aI01
aF0
aF0
aF0
aF0
aI01
aF0
aF0
aF0
aF0
aI01
aF0
aF0
aF0
aF0
aI01
aF0
aF0
aF0
aF0
aI01
aF0
aF0
aF0
aF0
aI01
aF0
aF0
aF0
aF0
aI01
aF0
aF0
aF0
aF0
aI01
aF0
aF0
aF0
aF0
aI01
aF0
aF0
aF0
aF0
aI01
aF0
aF0
aF0
aF0
aI01
aF0
aF0
aF0
aF0
aI01
aF0
aF0
aF0
aF0
aI01
aF0
aF0
aF0
aF0
aI01
aF0
aF0
aF0
aF0
aI01
aF0
aF0
aF0
aF0
aI01
aF0
aF0
aF0
aF0
aI01
aF0
aF0
aF0
aF0
aI01
aF0
aF0
aF0
aF0
aI01
aF0
aF0
aF0
aF0
aI01
aF0
aF0
aF0
aF0
aI01
aF0
aF0
aF0
aF0
aI01
aF0
aF0
aF0
aF0
aI01
aF0
aF0
aF0
aF0
aI01
aF0
aF0
aF0
aF0
aI01
aF0
aF0
aF0
aF0
aI01
aF0
aF0
aF0
aF0
aI01
aF0
aF0
aF0
aF0
aI01
aF0
aF0
aF0
aF0
aI01
aF0
aF0
aF0
aF0
aI01
aF0
aF0
aF0
aF0
aI01
aF0
aF0
aF0
aF0
aI01
aF0
aF0
aF0
aF0
aI01
aF0
aF0
aF0
aF0
aI01
aF0
aF0
aF0
aF0
aI01
aF0
aF0
aF0
aF0
aI01
aF0
aF0
aF0
aF0
aI01
aF0
aF0
aF0
aF0
aI01
aF0
aF0
aF0
aF0
aI01
aF0
aF0
aF0
aF0
aI01
aF0
aF0
aF0
aF0
aI01
aF0
aF0
aF0
aF0
aI01
aF0
aF0
aF0
aF0
aI01
aF0
aF0
aF0
aF0
aI01
aF0
aF0
aF0
aF0
aI01
aF0
aF0
aF0
aF0
aI01
aF0
aF0
aF0
aF0
aI01
aF0
aF0
aF0
aF0
aI01
aF0
aF0
aF0
aF0
aI01
aF0
aF0
aF0
aF0
aI01
aF0
aF0
aF0
aF0
aI01
aF0
aF0
aF0
aF0
aI01
aF0
aF0
aF0
aF0
aI01
aF0
aF0
aF0
aF0
aI01
aF0
aF0
aF0
aF0
aI01
aF0
aF0
aF0
aF0
aI01
aF0
aF0
aF0
aF0
aI01
aF0
aF0
aF0
aF0
aI01
aF0
aF0
aF0
aF0
aI01
aF0
aF0
aF0
aF0
aI01
aF0
aF0
aF0
aF0
aI01
aF0
aF0
aF0
aF0
aI01
aF0
aF0
aF0
aF0
aI01
aF0
aF0
aF0
aF0
aI01
aF0
aF0
aF0
aF0
aI01
aF0
aF0
aF0
aF0
aI01
aF0
aF0
aF0
aF0
aI01
aF0
aF0
aF0
aF0
aI01
aF0
aF0
aF0
aF0
aI01
aF0
aF0
aF0
aF0
aI01
aF0
aF0
aF0
aF0
aI01
aF0
aF0
aF0
aF0
aI01
aF0
aF0
aF0
aF0
aI01
aF0
aF0
aF0
aF0
aI01
aF0
aF0
aF0
aF0
aI00
aF0
aF25.949999999999999
aF0
aF228
aI01
aF0
aF0
aF0
aF0
aI01
aF0
aF0
aF0
aF0
aI01
aF0
aF0
aF0
aF0
aI01
aF0
aF0
aF0
aF0
aI01
aF0
aF0
aF0
aF0
aI00
aF0
aF1.26
aF10.98
aF241.94
aI01
aF0
aF0
aF0
aF0
aI01
aF0
aF0
aF0
aF0
aI00
aF0
aF15.949999999999999
aF0
aF121.41
aI01
aF0
aF0
aF0
aF0
aI01
aF0
aF0
aF0
aF0
aI00
aF0
aF1.26
aF0
aF145.16
aI01
aF0
aF0
aF0
aF0
aI00
aF0
aF0
aF0
aF73.75
aI01
aF0
aF0
aF0
aF0
aI01
aF0
aF0
aF0
aF0
aI00
aF0
aF25.940000000000001
aF0
aF257.23000000000002
aI01
aF0
aF0
aF0
aF0
aI00
aF6.5999999999999996
aF0
aF6.5999999999999996
aF118.65000000000001
aI01
aF0
aF0
aF0
aF0
aI01
aF0
aF0
aF0
aF0
aI01
aF0
aF0
aF0
aF0
aI00
aF0
aF1.26
aF16.52
aF232.15000000000001
aI01
aF0
aF0
aF0
aF0
aI01
aF0
aF0
aF0
aF0
aI01
aF0
aF0
aF0
aF0
aI00
aF0
aF17.210000000000001
aF0
aF212.05000000000001
aI01
aF0
aF0
aF0
aF0
aI01
aF0
aF0
aF0
aF0
aI01
aF0
aF0
aF0
aF0
aI01
aF0
aF0
aF0
aF0
aI01
aF0
aF0
aF0
aF0
aI00
aF0
aF12.48
aF0
aF148.63999999999999
aI01
aF0
aF0
aF0
aF0
aI01
aF0
aF0
aF0
aF0
aI01
aF0
aF0
aF0
aF0
aI00
aF0
aF1.1899999999999999
aF4.1200000000000001
aF302.63999999999999
aI00
aF0
aF0
aF0
aF26.940000000000001
aI01
aF0
aF0
aF0
aF0
aI00
aF0
aF0
aF0
aF47.670000000000002
aI01
aF0
aF0
aF0
aF0
aI01
aF0
aF0
aF0
aF0
aI00
aF0
aF22.98
aF0
aF201.66
aI01
aF0
aF0
aF0
aF0
aI01
aF0
aF0
aF0
aF0
aI01
aF0
aF0
aF0
aF0
aI01
aF0
aF0
aF0
aF0
aI00
aF0
aF11.69
aF8.2599999999999998
aF223.41999999999999
aI01
aF0
aF0
aF0
aF0
aI01
aF0
aF0
aF0
aF0
aI00
aF0
aF24
aF0
aF256.69999999999999
aI01
aF0
aF0
aF0
aF0
aI01
aF0
aF0
aF0
aF0
aI00
aF0
aF0
aF0
aF14.35
aI01
aF0
aF0
aF0
aF0
aI01
aF0
aF0
aF0
aF0
aI01
aF0
aF0
aF0
aF0
aI00
aF0
aF0
aF7.4299999999999997
aF206.41999999999999
aI01
aF0
aF0
aF0
aF0
aI01
aF0
aF0
aF0
aF0
aI01
aF0
aF0
aF0
aF0
aI01
aF0
aF0
aF0
aF0
aI00
aF0
aF4.5899999999999999
aF0
aF245.49000000000001
aI01
aF0
aF0
aF0
aF0
aI00
aF0
aF0
aF0
aF70.890000000000001
aI01
aF0
aF0
aF0
aF0
aI01
aF0
aF0
aF0
aF0
aI00
aF0
aF0
aF12.390000000000001
aF35.409999999999997
aI01
aF0
aF0
aF0
aF0
aI00
aF0
aF1.1899999999999999
aF0
aF426.19999999999999
aI00
aF0
aF0
aF0
aF117.93000000000001
aI00
aF0
aF1.1899999999999999
aF0
aF63.68
aI01
aF0
aF0
aF0
aF0
aI01
aF0
aF0
aF0
aF0
aI01
aF0
aF0
aF0
aF0
aI00
aF0
aF4.6900000000000004
aF0
aF267.83999999999997
aI01
aF0
aF0
aF0
aF0
aI01
aF0
aF0
aF0
aF0
aI00
aF0
aF0
aF0
aF249.34
aI01
aF0
aF0
aF0
aF0
aI01
aF0
aF0
aF0
aF0
aI00
aF0
aF0
aF0
aF128.53999999999999
aI01
aF0
aF0
aF0
aF0
aI01
aF0
aF0
aF0
aF0
aI00
aF0
aF0
aF0
aF24.600000000000001
aI00
aF0
aF0
aF0
aF226.55000000000001
aI01
aF0
aF0
aF0
aF0
aI01
aF0
aF0
aF0
aF0
aI00
aF0
aF0
aF0
aF28.489999999999998
aI01
aF0
aF0
aF0
aF0
aI01
aF0
aF0
aF0
aF0
aI00
aF0
aF58.509999999999998
aF0
aF320.75999999999999
aI01
aF0
aF0
aF0
aF0
aI01
aF0
aF0
aF0
aF0
aI01
aF0
aF0
aF0
aF0
aI00
aF0
aF23.579999999999998
aF0
aF165.11000000000001
aI01
aF0
aF0
aF0
aF0
aI01
aF0
aF0
aF0
aF0
aI01
aF0
aF0
aF0
aF0
aI01
aF0
aF0
aF0
aF0
aI00
aF0
aF1.26
aF0
aF18.27
aI01
aF0
aF0
aF0
aF0
aI01
aF0
aF0
aF0
aF0
aI01
aF0
aF0
aF0
aF0
aI01
aF0
aF0
aF0
aF0
aI00
aF0
aF34.009999999999998
aF4.1200000000000001
aF271.16000000000003
aI01
aF0
aF0
aF0
aF0
aI00
aF0
aF0
aF0
aF35.25
aI01
aF0
aF0
aF0
aF0
aI01
aF0
aF0
aF0
aF0
aI00
aF0
aF85.400000000000006
aF0
aF238.53999999999999
aI00
aF0
aF0
aF12.390000000000001
aF41.560000000000002
aI01
aF0
aF0
aF0
aF0
aI01
aF0
aF0
aF0
aF0
aI00
aF0
aF18.780000000000001
aF0
aF195.38
aI01
aF0
aF0
aF0
aF0
aI01
aF0
aF0
aF0
aF0
aI01
aF0
aF0
aF0
aF0
aI01
aF0
aF0
aF0
aF0
aI00
aF0
aF1.26
aF0
aF27.109999999999999
aI00
aF0
aF10.119999999999999
aF0
aF273.08999999999997
aI00
aF0
aF0
aF0
aF34.490000000000002
aI01
aF0
aF0
aF0
aF0
aI00
aF0
aF2.21
aF0
aF119.33
aI01
aF0
aF0
aF0
aF0
aI00
aF0
aF1.26
aF0
aF66.230000000000004
aI01
aF0
aF0
aF0
aF0
aI00
aF0
aF13.66
aF0
aF372.26999999999998
aI01
aF0
aF0
aF0
aF0
aI01
aF0
aF0
aF0
aF0
aI00
aF0
aF0
aF0
aF109.11
aI01
aF0
aF0
aF0
aF0
aI00
aF0
aF8.8599999999999994
aF0
aF299.25
aI01
aF0
aF0
aF0
aF0
aI00
aF0
aF0
aF0
aF26.98
aI01
aF0
aF0
aF0
aF0
aI01
aF0
aF0
aF0
aF0
aI00
aF0
aF44.020000000000003
aF8.25
aF232.55000000000001
aI01
aF0
aF0
aF0
aF0
aI01
aF0
aF0
aF0
aF0
aI01
aF0
aF0
aF0
aF0
aI01
aF0
aF0
aF0
aF0
aI00
aF0
aF0
aF0
aF38.969999999999999
aI01
aF0
aF0
aF0
aF0
aI00
aF0
aF16.91
aF0
aF386.51999999999998
aI01
aF0
aF0
aF0
aF0
aI00
aF0
aF0
aF0
aF14.460000000000001
aI01
aF0
aF0
aF0
aF0
aI01
aF0
aF0
aF0
aF0
aI01
aF0
aF0
aF0
aF0
aI01
aF0
aF0
aF0
aF0
aI01
aF0
aF0
aF0
aF0
aI00
aF0
aF44.140000000000001
aF0
aF249.44999999999999
aI01
aF0
aF0
aF0
aF0
aI01
aF0
aF0
aF0
aF0
aI00
aF0
aF23.539999999999999
aF8.25
aF165.34
aI01
aF0
aF0
aF0
aF0
aI01
aF0
aF0
aF0
aF0
aI00
aF0
aF0
aF0
aF66.400000000000006
aI01
aF0
aF0
aF0
aF0
aI00
aF0
aF13.81
aF0
aF263.35000000000002
aI00
aF0
aF0
aF0
aF174.94999999999999
aI01
aF0
aF0
aF0
aF0
aI01
aF0
aF0
aF0
aF0
aI01
aF0
aF0
aF0
aF0
aI00
aF0
aF37.350000000000001
aF0
aF240.38
aI01
aF0
aF0
aF0
aF0
aI01
aF0
aF0
aF0
aF0
aI00
aF0
aF3.7000000000000002
aF0
aF275.58999999999997
aI01
aF0
aF0
aF0
aF0
aI01
aF0
aF0
aF0
aF0
aI01
aF0
aF0
aF0
aF0
aI00
aF0
aF15.949999999999999
aF0
aF75.849999999999994
aI01
aF0
aF0
aF0
aF0
aI01
aF0
aF0
aF0
aF0
aI00
aF0
aF21.260000000000002
aF7.0099999999999998
aF347.85000000000002
aI01
aF0
aF0
aF0
aF0
aI00
aF0
aF18.41
aF0
aF80.390000000000001
aI01
aF0
aF0
aF0
aF0
aI00
aF0
aF0
aF0
aF48.380000000000003
aI00
aF0
aF0
aF0
aF35.390000000000001
aI00
aF0
aF53.329999999999998
aF16.93
aF342.82999999999998
aI01
aF0
aF0
aF0
aF0
aI00
aF0
aF0
aF0
aF77.099999999999994
aI01
aF0
aF0
aF0
aF0
aI01
aF0
aF0
aF0
aF0
aI00
aF0
aF50.719999999999999
aF16.510000000000002
aF183.71000000000001
aI01
aF0
aF0
aF0
aF0
aI01
aF0
aF0
aF0
aF0
aI00
aF0
aF20.489999999999998
aF9.0800000000000001
aF227.13999999999999
aI00
aF0
aF0
aF0
aF55.020000000000003
aI01
aF0
aF0
aF0
aF0
aI01
aF0
aF0
aF0
aF0
aI00
aF0
aF7.5199999999999996
aF0
aF149.97
aI01
aF0
aF0
aF0
aF0
aI01
aF0
aF0
aF0
aF0
aI00
aF0
aF67.680000000000007
aF0
aF259.25999999999999
aI01
aF0
aF0
aF0
aF0
aI01
aF0
aF0
aF0
aF0
aI01
aF0
aF0
aF0
aF0
aI00
aF0
aF3.8500000000000001
aF0
aF137.27000000000001
aI01
aF0
aF0
aF0
aF0
aI01
aF0
aF0
aF0
aF0
aI00
aF0
aF51.950000000000003
aF0
aF248.06
aI01
aF0
aF0
aF0
aF0
aI01
aF0
aF0
aF0
aF0
aI01
aF0
aF0
aF0
aF0
aI00
aF0
aF0
aF0
aF215.27000000000001
aI01
aF0
aF0
aF0
aF0
aI01
aF0
aF0
aF0
aF0
aI00
aF0
aF0
aF0
aF353.55000000000001
aI01
aF0
aF0
aF0
aF0
aI00
aF0
aF0
aF0
aF223.97999999999999
aI01
aF0
aF0
aF0
aF0
aI01
aF0
aF0
aF0
aF0
aI00
aF0
aF0
aF0
aF291.23000000000002
aI01
aF0
aF0
aF0
aF0
aI01
aF0
aF0
aF0
aF0
aI01
aF0
aF0
aF0
aF0
aI00
aF0
aF0
aF8.5800000000000001
aF170.13999999999999
aI01
aF0
aF0
aF0
aF0
aI01
aF0
aF0
aF0
aF0
aI01
aF0
aF0
aF0
aF0
aI01
aF0
aF0
aF0
aF0
aI00
aF0
aF0
aF0
aF138.52000000000001
aI01
aF0
aF0
aF0
aF0
aI00
aF0
aF110.34
aF0
aF419.77999999999997
aI01
aF0
aF0
aF0
aF0
aI00
aF0
aF0
aF0
aF268.50999999999999
aI00
aF0
aF0
aF0
aF15.039999999999999
aI01
aF0
aF0
aF0
aF0
aI00
aF0
aF0
aF0
aF162.40000000000001
aI01
aF0
aF0
aF0
aF0
aI00
aF0
aF0
aF0
aF8.1500000000000004
aI01
aF0
aF0
aF0
aF0
aI00
aF0
aF2.5299999999999998
aF0
aF79.159999999999997
aI00
aF0
aF4.8600000000000003
aF0
aF360.81999999999999
aI00
aF0
aF0
aF0
aF21.91
aI01
aF0
aF0
aF0
aF0
aI00
aF0
aF3.8999999999999999
aF0
aF57.979999999999997
aI01
aF0
aF0
aF0
aF0
aI01
aF0
aF0
aF0
aF0
aI01
aF0
aF0
aF0
aF0
aI00
aF0
aF0
aF4.4000000000000004
aF208.00999999999999
aI01
aF0
aF0
aF0
aF0
aI00
aF0
aF0
aF5.2000000000000002
aF151.13
aI01
aF0
aF0
aF0
aF0
aI01
aF0
aF0
aF0
aF0
aI01
aF0
aF0
aF0
aF0
aI01
aF0
aF0
aF0
aF0
aI00
aF0
aF0
aF0
aF395.60000000000002
aI01
aF0
aF0
aF0
aF0
aI00
aF0
aF0
aF0
aF9.4000000000000004
aI01
aF0
aF0
aF0
aF0
aI00
aF0
aF0
aF9.3499999999999996
aF217.80000000000001
aI01
aF0
aF0
aF0
aF0
aI01
aF0
aF0
aF0
aF0
aI00
aF0
aF0
aF3.9500000000000002
aF114.25
aI01
aF0
aF0
aF0
aF0
aI00
aF0
aF0
aF0
aF179.80000000000001
aI01
aF0
aF0
aF0
aF0
aI01
aF0
aF0
aF0
aF0
aI01
aF0
aF0
aF0
aF0
aI01
aF0
aF0
aF0
aF0
aI00
aF0
aF0
aF0
aF240.63999999999999
aI00
aF0
aF0
aF0
aF189.97
aI01
aF0
aF0
aF0
aF0
aI01
aF0
aF0
aF0
aF0
aI00
aF0
aF0
aF17.699999999999999
aF0
aI01
aF0
aF0
aF0
aF0
aI01
aF0
aF0
aF0
aF0
aI00
aF0
aF32.289999999999999
aF0
aF425.13999999999999
aI01
aF0
aF0
aF0
aF0
aI01
aF0
aF0
aF0
aF0
aI01
aF0
aF0
aF0
aF0
aI00
aF0
aF0
aF0
aF148.62
aI01
aF0
aF0
aF0
aF0
aI01
aF0
aF0
aF0
aF0
aI01
aF0
aF0
aF0
aF0
aI01
aF0
aF0
aF0
aF0
aI01
aF0
aF0
aF0
aF0
aI01
aF0
aF0
aF0
aF0
aI01
aF0
aF0
aF0
aF0
aI01
aF0
aF0
aF0
aF0
aI01
aF0
aF0
aF0
aF0
aI01
aF0
aF0
aF0
aF0
aI01
aF0
aF0
aF0
aF0
aI01
aF0
aF0
aF0
aF0
aI01
aF0
aF0
aF0
aF0
aI01
aF0
aF0
aF0
aF0
aI01
aF0
aF0
aF0
aF0
aI01
aF0
aF0
aF0
aF0
aI01
aF0
aF0
aF0
aF0
aI01
aF0
aF0
aF0
aF0
aI01
aF0
aF0
aF0
aF0
aI01
aF0
aF0
aF0
aF0
aI01
aF0
aF0
aF0
aF0
aI01
aF0
aF0
aF0
aF0
aI01
aF0
aF0
aF0
aF0
aI01
aF0
aF0
aF0
aF0
aI01
aF0
aF0
aF0
aF0
aI00
aF0
aF6.9500000000000002
aF0
aF232.38999999999999
aI01
aF0
aF0
aF0
aF0
aI01
aF0
aF0
aF0
aF0
aI01
aF0
aF0
aF0
aF0
aI01
aF0
aF0
aF0
aF0
aI00
aF0
aF6.9500000000000002
aF28.91
aF242.66999999999999
aI01
aF0
aF0
aF0
aF0
aI01
aF0
aF0
aF0
aF0
aI00
aF0
aF7.9699999999999998
aF22.100000000000001
aF34.799999999999997
aI01
aF0
aF0
aF0
aF0
aI01
aF0
aF0
aF0
aF0
aI00
aF0
aF13.31
aF0
aF102.77
aI01
aF0
aF0
aF0
aF0
aI01
aF0
aF0
aF0
aF0
aI00
aF0
aF7.1600000000000001
aF0
aF200.18000000000001
aI01
aF0
aF0
aF0
aF0
aI01
aF0
aF0
aF0
aF0
aI01
aF0
aF0
aF0
aF0
aI01
aF0
aF0
aF0
aF0
aI00
aF0
aF0
aF0
aF320.80000000000001
aI01
aF0
aF0
aF0
aF0
aI01
aF0
aF0
aF0
aF0
aI00
aF0
aF0
aF0
aF134.58000000000001
aI01
aF0
aF0
aF0
aF0
aI01
aF0
aF0
aF0
aF0
aI01
aF0
aF0
aF0
aF0
aI00
aF0
aF0
aF0
aF30.5
aI01
aF0
aF0
aF0
aF0
aI00
aF0
aF0
aF0
aF259.79000000000002
aI00
aF0
aF0
aF14.300000000000001
aF62.979999999999997
aI01
aF0
aF0
aF0
aF0
aI01
aF0
aF0
aF0
aF0
aI00
aF0
aF0
aF8.8499999999999996
aF65.569999999999993
aI01
aF0
aF0
aF0
aF0
aI00
aF0
aF80.599999999999994
aF0
aF319.51999999999998
aI01
aF0
aF0
aF0
aF0
aI01
aF0
aF0
aF0
aF0
aI01
aF0
aF0
aF0
aF0
aI01
aF0
aF0
aF0
aF0
aI01
aF0
aF0
aF0
aF0
aI00
aF0
aF0
aF0
aF29.010000000000002
aI01
aF0
aF0
aF0
aF0
aI00
aF0
aF15.119999999999999
aF0
aF217.41999999999999
aI01
aF0
aF0
aF0
aF0
aI01
aF0
aF0
aF0
aF0
aI01
aF0
aF0
aF0
aF0
aI01
aF0
aF0
aF0
aF0
aI00
aF0
aF0
aF0
aF173.33000000000001
aI00
aF0
aF30.399999999999999
aF0
aF49.549999999999997
aI01
aF0
aF0
aF0
aF0
aI00
aF0
aF15.199999999999999
aF18.190000000000001
aF159.16
aI01
aF0
aF0
aF0
aF0
aI01
aF0
aF0
aF0
aF0
aI01
aF0
aF0
aF0
aF0
aI01
aF0
aF0
aF0
aF0
aI01
aF0
aF0
aF0
aF0
aI00
aF0
aF7.5199999999999996
aF25.050000000000001
aF130.09999999999999
aI00
aF0
aF0
aF0
aF16.699999999999999
aI00
aF0
aF36.960000000000001
aF0
aF287.19999999999999
aI01
aF0
aF0
aF0
aF0
aI01
aF0
aF0
aF0
aF0
aI01
aF0
aF0
aF0
aF0
aI01
aF0
aF0
aF0
aF0
aI01
aF0
aF0
aF0
aF0
aI01
aF0
aF0
aF0
aF0
aI01
aF0
aF0
aF0
aF0
aI01
aF0
aF0
aF0
aF0
aI01
aF0
aF0
aF0
aF0
aI01
aF0
aF0
aF0
aF0
aI01
aF0
aF0
aF0
aF0
aI01
aF0
aF0
aF0
aF0
aI01
aF0
aF0
aF0
aF0
aI01
aF0
aF0
aF0
aF0
aI01
aF0
aF0
aF0
aF0
aI01
aF0
aF0
aF0
aF0
aI01
aF0
aF0
aF0
aF0
aI01
aF0
aF0
aF0
aF0
aI01
aF0
aF0
aF0
aF0
aI01
aF0
aF0
aF0
aF0
aI01
aF0
aF0
aF0
aF0
aI01
aF0
aF0
aF0
aF0
aI01
aF0
aF0
aF0
aF0
aI01
aF0
aF0
aF0
aF0
aI01
aF0
aF0
aF0
aF0
aI01
aF0
aF0
aF0
aF0
aI01
aF0
aF0
aF0
aF0
aI01
aF0
aF0
aF0
aF0
aI01
aF0
aF0
aF0
aF0
aI01
aF0
aF0
aF0
aF0
aI01
aF0
aF0
aF0
aF0
aI01
aF0
aF0
aF0
aF0
aI01
aF0
aF0
aF0
aF0
aI01
aF0
aF0
aF0
aF0
aI01
aF0
aF0
aF0
aF0
aI01
aF0
aF0
aF0
aF0
aI01
aF0
aF0
aF0
aF0
aI01
aF0
aF0
aF0
aF0
aI01
aF0
aF0
aF0
aF0
aI01
aF0
aF0
aF0
aF0
aI01
aF0
aF0
aF0
aF0
aI01
aF0
aF0
aF0
aF0
aI01
aF0
aF0
aF0
aF0
aI01
aF0
aF0
aF0
aF0
aI01
aF0
aF0
aF0
aF0
aI01
aF0
aF0
aF0
aF0
aI01
aF0
aF0
aF0
aF0
aI01
aF0
aF0
aF0
aF0
aI01
aF0
aF0
aF0
aF0
aI01
aF0
aF0
aF0
aF0
aI01
aF0
aF0
aF0
aF0
aI01
aF0
aF0
aF0
aF0
aI01
aF0
aF0
aF0
aF0
aI01
aF0
aF0
aF0
aF0
aI01
aF0
aF0
aF0
aF0
aI01
aF0
aF0
aF0
aF0
aI01
aF0
aF0
aF0
aF0
aI01
aF0
aF0
aF0
aF0
aI01
aF0
aF0
aF0
aF0
aI01
aF0
aF0
aF0
aF0
aI01
aF0
aF0
aF0
aF0
aI01
aF0
aF0
aF0
aF0
aI01
aF0
aF0
aF0
aF0
aI01
aF0
aF0
aF0
aF0
aI01
aF0
aF0
aF0
aF0
aI01
aF0
aF0
aF0
aF0
aI01
aF0
aF0
aF0
aF0
aI01
aF0
aF0
aF0
aF0
aI01
aF0
aF0
aF0
aF0
aI01
aF0
aF0
aF0
aF0
aI01
aF0
aF0
aF0
aF0
aI01
aF0
aF0
aF0
aF0
aI01
aF0
aF0
aF0
aF0
aI01
aF0
aF0
aF0
aF0
aI01
aF0
aF0
aF0
aF0
aI01
aF0
aF0
aF0
aF0
aI01
aF0
aF0
aF0
aF0
aI01
aF0
aF0
aF0
aF0
aI01
aF0
aF0
aF0
aF0
aI01
aF0
aF0
aF0
aF0
aI01
aF0
aF0
aF0
aF0
aI01
aF0
aF0
aF0
aF0
aI01
aF0
aF0
aF0
aF0
aI01
aF0
aF0
aF0
aF0
aI01
aF0
aF0
aF0
aF0
aI01
aF0
aF0
aF0
aF0
aI01
aF0
aF0
aF0
aF0
aI01
aF0
aF0
aF0
aF0
aI01
aF0
aF0
aF0
aF0
aI01
aF0
aF0
aF0
aF0
aI01
aF0
aF0
aF0
aF0
aI01
aF0
aF0
aF0
aF0
aI01
aF0
aF0
aF0
aF0
aI01
aF0
aF0
aF0
aF0
aI01
aF0
aF0
aF0
aF0
aI01
aF0
aF0
aF0
aF0
aI01
aF0
aF0
aF0
aF0
aI01
aF0
aF0
aF0
aF0
aI01
aF0
aF0
aF0
aF0
aI01
aF0
aF0
aF0
aF0
aI01
aF0
aF0
aF0
aF0
aI01
aF0
aF0
aF0
aF0
aI01
aF0
aF0
aF0
aF0
aI01
aF0
aF0
aF0
aF0
aI01
aF0
aF0
aF0
aF0
aI01
aF0
aF0
aF0
aF0
aI01
aF0
aF0
aF0
aF0
aI01
aF0
aF0
aF0
aF0
aI01
aF0
aF0
aF0
aF0
aI01
aF0
aF0
aF0
aF0
aI01
aF0
aF0
aF0
aF0
aI01
aF0
aF0
aF0
aF0
aI01
aF0
aF0
aF0
aF0
aI01
aF0
aF0
aF0
aF0
aI01
aF0
aF0
aF0
aF0
aI01
aF0
aF0
aF0
aF0
aI01
aF0
aF0
aF0
aF0
aI01
aF0
aF0
aF0
aF0
aI01
aF0
aF0
aF0
aF0
aI01
aF0
aF0
aF0
aF0
aI01
aF0
aF0
aF0
aF0
aI01
aF0
aF0
aF0
aF0
aI01
aF0
aF0
aF0
aF0
aI01
aF0
aF0
aF0
aF0
aI01
aF0
aF0
aF0
aF0
aI01
aF0
aF0
aF0
aF0
aI01
aF0
aF0
aF0
aF0
aI01
aF0
aF0
aF0
aF0
aI01
aF0
aF0
aF0
aF0
aI01
aF0
aF0
aF0
aF0
aI01
aF0
aF0
aF0
aF0
aI01
aF0
aF0
aF0
aF0
aI01
aF0
aF0
aF0
aF0
aI01
aF0
aF0
aF0
aF0
aI01
aF0
aF0
aF0
aF0
aI01
aF0
aF0
aF0
aF0
aI01
aF0
aF0
aF0
aF0
aI01
aF0
aF0
aF0
aF0
aI01
aF0
aF0
aF0
aF0
aI01
aF0
aF0
aF0
aF0
aI01
aF0
aF0
aF0
aF0
aI01
aF0
aF0
aF0
aF0
aI01
aF0
aF0
aF0
aF0
aI01
aF0
aF0
aF0
aF0
aI01
aF0
aF0
aF0
aF0
aI01
aF0
aF0
aF0
aF0
aI01
aF0
aF0
aF0
aF0
aI01
aF0
aF0
aF0
aF0
aI01
aF0
aF0
aF0
aF0
aI01
aF0
aF0
aF0
aF0
aI01
aF0
aF0
aF0
aF0
aI01
aF0
aF0
aF0
aF0
aI01
aF0
aF0
aF0
aF0
aI01
aF0
aF0
aF0
aF0
aI01
aF0
aF0
aF0
aF0
aI01
aF0
aF0
aF0
aF0
aI01
aF0
aF0
aF0
aF0
aI01
aF0
aF0
aF0
aF0
aI01
aF0
aF0
aF0
aF0
aI01
aF0
aF0
aF0
aF0
aI01
aF0
aF0
aF0
aF0
aI01
aF0
aF0
aF0
aF0
aI01
aF0
aF0
aF0
aF0
aI01
aF0
aF0
aF0
aF0
aI01
aF0
aF0
aF0
aF0
aI01
aF0
aF0
aF0
aF0
aI01
aF0
aF0
aF0
aF0
aI01
aF0
aF0
aF0
aF0
aI01
aF0
aF0
aF0
aF0
aI01
aF0
aF0
aF0
aF0
aI01
aF0
aF0
aF0
aF0
aI01
aF0
aF0
aF0
aF0
aI01
aF0
aF0
aF0
aF0
aI01
aF0
aF0
aF0
aF0
aI01
aF0
aF0
aF0
aF0
aI01
aF0
aF0
aF0
aF0
aI01
aF0
aF0
aF0
aF0
aI00
aF0
aF0
aF0
aF638.72000000000003
aI01
aF0
aF0
aF0
aF0
aI00
aF0
aF0
aF0
aF257.00999999999999
aI01
aF0
aF0
aF0
aF0
aI01
aF0
aF0
aF0
aF0
aI01
aF0
aF0
aF0
aF0
aI01
aF0
aF0
aF0
aF0
aI01
aF0
aF0
aF0
aF0
aI00
aF0
aF0
aF0
aF298.07999999999998
aI00
aF0
aF0
aF0
aF129.03999999999999
aI01
aF0
aF0
aF0
aF0
aI00
aF0
aF0
aF0
aF3.9700000000000002
aI01
aF0
aF0
aF0
aF0
aI01
aF0
aF0
aF0
aF0
aI01
aF0
aF0
aF0
aF0
aI00
aF0
aF0
aF0
aF14.23
aI01
aF0
aF0
aF0
aF0
aI00
aF0
aF0
aF0
aF219.84999999999999
aI00
aF0
aF0
aF0
aF114.36
aI01
aF0
aF0
aF0
aF0
aI01
aF0
aF0
aF0
aF0
aI00
aF0
aF0
aF0
aF-6.4699999999999998
aI00
aF0
aF0
aF0
aF4.5599999999999996
aI01
aF0
aF0
aF0
aF0
aI01
aF0
aF0
aF0
aF0
aI01
aF0
aF0
aF0
aF0
aI01
aF0
aF0
aF0
aF0
aI01
aF0
aF0
aF0
aF0
aI00
aF0
aF0
aF0
aF13.76
aI00
aF0
aF0
aF0
aF-27.550000000000001
aI00
aF0
aF0
aF0
aF11.960000000000001
aI00
aF0
aF0
aF0
aF165.24000000000001
aI01
aF0
aF0
aF0
aF0
aI01
aF0
aF0
aF0
aF0
aI00
aF0
aF0
aF0
aF108.31999999999999
aI01
aF0
aF0
aF0
aF0
aI01
aF0
aF0
aF0
aF0
aI01
aF0
aF0
aF0
aF0
aI01
aF0
aF0
aF0
aF0
aI00
aF0
aF0
aF0
aF262.06999999999999
aI01
aF0
aF0
aF0
aF0
aI01
aF0
aF0
aF0
aF0
aI01
aF0
aF0
aF0
aF0
aI00
aF0
aF0
aF0
aF109.14
aI00
aF0
aF0
aF0
aF300.77999999999997
aI00
aF0
aF0
aF0
aF-7.8700000000000001
aI00
aF0
aF0
aF0
aF4.7599999999999998
aI01
aF0
aF0
aF0
aF0
aI01
aF0
aF0
aF0
aF0
aI01
aF0
aF0
aF0
aF0
aI01
aF0
aF0
aF0
aF0
aI00
aF0
aF0
aF0
aF195.46000000000001
aI00
aF0
aF0
aF0
aF-6.5599999999999996
aI00
aF0
aF0
aF0
aF4.7599999999999998
aI01
aF0
aF0
aF0
aF0
aI01
aF0
aF0
aF0
aF0
aI00
aF0
aF0
aF0
aF32.140000000000001
aI01
aF0
aF0
aF0
aF0
aI00
aF0
aF0
aF0
aF210.34999999999999
aI00
aF0
aF0
aF0
aF7.7199999999999998
aI01
aF0
aF0
aF0
aF0
aI01
aF0
aF0
aF0
aF0
aI01
aF0
aF0
aF0
aF0
aI00
aF0
aF0
aF0
aF16.030000000000001
aI00
aF0
aF0
aF14.460000000000001
aF91.909999999999997
aI00
aF0
aF0
aF0
aF318.81999999999999
aI00
aF0
aF0
aF0
aF116.56999999999999
aI01
aF0
aF0
aF0
aF0
aI01
aF0
aF0
aF0
aF0
aI00
aF0
aF0
aF0
aF-1.8
aI00
aF0
aF0
aF0
aF-13.779999999999999
aI01
aF0
aF0
aF0
aF0
aI00
aF0
aF0
aF0
aF121.09999999999999
aI00
aF0
aF0
aF0
aF-390.20999999999998
aI01
aF0
aF0
aF0
aF0
aI01
aF0
aF0
aF0
aF0
aI01
aF0
aF0
aF0
aF0
aI00
aF0
aF0
aF0
aF252.09999999999999
aI00
aF0
aF0
aF0
aF144.47
aI00
aF0
aF0
aF0
aF267.12
aI00
aF0
aF0
aF0
aF253.31999999999999
aI00
aF0
aF0
aF0
aF103.56
aI01
aF0
aF0
aF0
aF0
aI01
aF0
aF0
aF0
aF0
aI00
aF0
aF0
aF0
aF101.84
aI00
aF0
aF0
aF0
aF106.84
aI00
aF0
aF0
aF0
aF18.420000000000002
aI00
aF0
aF0
aF0
aF107.15000000000001
aI01
aF0
aF0
aF0
aF0
aI01
aF0
aF0
aF0
aF0
aI01
aF0
aF0
aF0
aF0
aI00
aF0
aF0
aF0
aF71.840000000000003
aI01
aF0
aF0
aF0
aF0
aI00
aF0
aF0
aF0
aF239.38999999999999
aI00
aF0
aF0
aF0
aF173.25999999999999
aI00
aF0
aF0
aF0
aF271.29000000000002
aI01
aF0
aF0
aF0
aF0
aI01
aF0
aF0
aF0
aF0
aI00
aF0
aF0
aF5.3499999999999996
aF340.85000000000002
aI00
aF0
aF0
aF0
aF85.450000000000003
aI00
aF0
aF0
aF0
aF71.430000000000007
aI00
aF0
aF0
aF0
aF176.97999999999999
aI00
aF0
aF0
aF0
aF168.59999999999999
aI00
aF0
aF0
aF0
aF131.87
aI01
aF0
aF0
aF0
aF0
aI01
aF0
aF0
aF0
aF0
aI01
aF0
aF0
aF0
aF0
aI01
aF0
aF0
aF0
aF0
aI01
aF0
aF0
aF0
aF0
aI01
aF0
aF0
aF0
aF0
aI01
aF0
aF0
aF0
aF0
aI01
aF0
aF0
aF0
aF0
aI01
aF0
aF0
aF0
aF0
aI01
aF0
aF0
aF0
aF0
aI01
aF0
aF0
aF0
aF0
aI01
aF0
aF0
aF0
aF0
aI01
aF0
aF0
aF0
aF0
aI01
aF0
aF0
aF0
aF0
aI01
aF0
aF0
aF0
aF0
aI01
aF0
aF0
aF0
aF0
aI01
aF0
aF0
aF0
aF0
aI01
aF0
aF0
aF0
aF0
aI01
aF0
aF0
aF0
aF0
aI01
aF0
aF0
aF0
aF0
aI01
aF0
aF0
aF0
aF0
aI01
aF0
aF0
aF0
aF0
aI00
aF0
aF0
aF5.3499999999999996
aF266.64999999999998
aI01
aF0
aF0
aF0
aF0
aI01
aF0
aF0
aF0
aF0
aI00
aF0
aF0
aF0
aF110.95999999999999
aI01
aF0
aF0
aF0
aF0
aI01
aF0
aF0
aF0
aF0
aI01
aF0
aF0
aF0
aF0
aI00
aF0
aF0
aF0
aF318.17000000000002
aI00
aF0
aF0
aF0
aF57.700000000000003
aI00
aF0
aF0
aF0
aF288.64999999999998
aI01
aF0
aF0
aF0
aF0
aI01
aF0
aF0
aF0
aF0
aI01
aF0
aF0
aF0
aF0
aI01
aF0
aF0
aF0
aF0
aI00
aF0
aF0
aF0
aF3.8599999999999999
aI01
aF0
aF0
aF0
aF0
aI00
aF0
aF0
aF0
aF442.19999999999999
aI01
aF0
aF0
aF0
aF0
aI01
aF0
aF0
aF0
aF0
aI00
aF0
aF0
aF0
aF-3.8799999999999999
aI01
aF0
aF0
aF0
aF0
aI00
aF0
aF0
aF0
aF3.9100000000000001
aI00
aF0
aF0
aF0
aF478.31
aI00
aF0
aF0
aF0
aF249.31
aI00
aF0
aF0
aF0
aF37.100000000000001
aI01
aF0
aF0
aF0
aF0
aI01
aF0
aF0
aF0
aF0
aI00
aF0
aF0
aF0
aF-22.870000000000001
aI00
aF0
aF0
aF0
aF166.24000000000001
aI01
aF0
aF0
aF0
aF0
aI00
aF0
aF0
aF0
aF311.69999999999999
aI01
aF0
aF0
aF0
aF0
aI00
aF0
aF0
aF0
aF366.72000000000003
aI01
aF0
aF0
aF0
aF0
aI01
aF0
aF0
aF0
aF0
aI00
aF0
aF0
aF0
aF175.25999999999999
aI01
aF0
aF0
aF0
aF0
aI00
aF0
aF0
aF0
aF-32.270000000000003
aI00
aF0
aF0
aF0
aF142.59999999999999
aI00
aF0
aF0
aF0
aF3.8599999999999999
aI01
aF0
aF0
aF0
aF0
aI01
aF0
aF0
aF0
aF0
aI00
aF0
aF0
aF0
aF783.21000000000004
aI00
aF0
aF0
aF0
aF-124.87
aI00
aF0
aF0
aF0
aF83.689999999999998
aI01
aF0
aF0
aF0
aF0
aI00
aF0
aF0
aF0
aF425.38
aI00
aF0
aF0
aF0
aF-3.5800000000000001
aI01
aF0
aF0
aF0
aF0
aI00
aF0
aF0
aF0
aF150.72
aI00
aF0
aF0
aF0
aF43.200000000000003
aI00
aF0
aF0
aF0
aF10.220000000000001
aI01
aF0
aF0
aF0
aF0
aI01
aF0
aF0
aF0
aF0
aI01
aF0
aF0
aF0
aF0
aI01
aF0
aF0
aF0
aF0
aI01
aF0
aF0
aF0
aF0
aI01
aF0
aF0
aF0
aF0
aI01
aF0
aF0
aF0
aF0
aI01
aF0
aF0
aF0
aF0
aI00
aF0
aF0
aF5.3499999999999996
aF391.63999999999999
aI00
aF0
aF0
aF0
aF-14.82
aI01
aF0
aF0
aF0
aF0
aI01
aF0
aF0
aF0
aF0
aI01
aF0
aF0
aF0
aF0
aI01
aF0
aF0
aF0
aF0
aI01
aF0
aF0
aF0
aF0
aI01
aF0
aF0
aF0
aF0
aI01
aF0
aF0
aF0
aF0
aI01
aF0
aF0
aF0
aF0
aI01
aF0
aF0
aF0
aF0
aI01
aF0
aF0
aF0
aF0
aI01
aF0
aF0
aF0
aF0
aI01
aF0
aF0
aF0
aF0
aI01
aF0
aF0
aF0
aF0
aI01
aF0
aF0
aF0
aF0
aI01
aF0
aF0
aF0
aF0
aI01
aF0
aF0
aF0
aF0
aI01
aF0
aF0
aF0
aF0
aI01
aF0
aF0
aF0
aF0
aI01
aF0
aF0
aF0
aF0
aI01
aF0
aF0
aF0
aF0
aI01
aF0
aF0
aF0
aF0
aI01
aF0
aF0
aF0
aF0
aI01
aF0
aF0
aF0
aF0
aI01
aF0
aF0
aF0
aF0
aI01
aF0
aF0
aF0
aF0
aI01
aF0
aF0
aF0
aF0
aI01
aF0
aF0
aF0
aF0
aI01
aF0
aF0
aF0
aF0
aI01
aF0
aF0
aF0
aF0
aI01
aF0
aF0
aF0
aF0
aI01
aF0
aF0
aF0
aF0
aI01
aF0
aF0
aF0
aF0
aI01
aF0
aF0
aF0
aF0
aI01
aF0
aF0
aF0
aF0
aI01
aF0
aF0
aF0
aF0
aI01
aF0
aF0
aF0
aF0
aI01
aF0
aF0
aF0
aF0
aI01
aF0
aF0
aF0
aF0
aI01
aF0
aF0
aF0
aF0
aI01
aF0
aF0
aF0
aF0
aI01
aF0
aF0
aF0
aF0
aI01
aF0
aF0
aF0
aF0
aI01
aF0
aF0
aF0
aF0
aI01
aF0
aF0
aF0
aF0
aI01
aF0
aF0
aF0
aF0
aI01
aF0
aF0
aF0
aF0
aI01
aF0
aF0
aF0
aF0
aI01
aF0
aF0
aF0
aF0
aI01
aF0
aF0
aF0
aF0
aI01
aF0
aF0
aF0
aF0
aI01
aF0
aF0
aF0
aF0
aI01
aF0
aF0
aF0
aF0
aI01
aF0
aF0
aF0
aF0
aI01
aF0
aF0
aF0
aF0
aI01
aF0
aF0
aF0
aF0
aI01
aF0
aF0
aF0
aF0
aI01
aF0
aF0
aF0
aF0
aI01
aF0
aF0
aF0
aF0
aI01
aF0
aF0
aF0
aF0
aI01
aF0
aF0
aF0
aF0
aI01
aF0
aF0
aF0
aF0
aI01
aF0
aF0
aF0
aF0
aI01
aF0
aF0
aF0
aF0
aI01
aF0
aF0
aF0
aF0
aI01
aF0
aF0
aF0
aF0
aI01
aF0
aF0
aF0
aF0
aI01
aF0
aF0
aF0
aF0
aI01
aF0
aF0
aF0
aF0
aI01
aF0
aF0
aF0
aF0
aI01
aF0
aF0
aF0
aF0
aI01
aF0
aF0
aF0
aF0
aI01
aF0
aF0
aF0
aF0
aI01
aF0
aF0
aF0
aF0
aI01
aF0
aF0
aF0
aF0
aI01
aF0
aF0
aF0
aF0
aI01
aF0
aF0
aF0
aF0
aI01
aF0
aF0
aF0
aF0
aI01
aF0
aF0
aF0
aF0
aI01
aF0
aF0
aF0
aF0
aI01
aF0
aF0
aF0
aF0
aI01
aF0
aF0
aF0
aF0
aI01
aF0
aF0
aF0
aF0
aI01
aF0
aF0
aF0
aF0
aI01
aF0
aF0
aF0
aF0
aI01
aF0
aF0
aF0
aF0
aI01
aF0
aF0
aF0
aF0
aI01
aF0
aF0
aF0
aF0
aI01
aF0
aF0
aF0
aF0
aI01
aF0
aF0
aF0
aF0
aI01
aF0
aF0
aF0
aF0
aI01
aF0
aF0
aF0
aF0
aI01
aF0
aF0
aF0
aF0
aI01
aF0
aF0
aF0
aF0
aI01
aF0
aF0
aF0
aF0
aI01
aF0
aF0
aF0
aF0
aI01
aF0
aF0
aF0
aF0
aI01
aF0
aF0
aF0
aF0
aI01
aF0
aF0
aF0
aF0
aI01
aF0
aF0
aF0
aF0
aI01
aF0
aF0
aF0
aF0
aI01
aF0
aF0
aF0
aF0
aI01
aF0
aF0
aF0
aF0
aI01
aF0
aF0
aF0
aF0
aI00
aF0
aF0
aF0
aF629.03999999999996
aI01
aF0
aF0
aF0
aF0
aI01
aF0
aF0
aF0
aF0
aI01
aF0
aF0
aF0
aF0
aI01
aF0
aF0
aF0
aF0
aI01
aF0
aF0
aF0
aF0
aI01
aF0
aF0
aF0
aF0
aI01
aF0
aF0
aF0
aF0
aI01
aF0
aF0
aF0
aF0
aI01
aF0
aF0
aF0
aF0
aI01
aF0
aF0
aF0
aF0
aI01
aF0
aF0
aF0
aF0
aI01
aF0
aF0
aF0
aF0
aI01
aF0
aF0
aF0
aF0
aI01
aF0
aF0
aF0
aF0
aI01
aF0
aF0
aF0
aF0
aI01
aF0
aF0
aF0
aF0
aI01
aF0
aF0
aF0
aF0
aI01
aF0
aF0
aF0
aF0
aI01
aF0
aF0
aF0
aF0
aI00
aF0
aF0
aF0
aF72.790000000000006
aI01
aF0
aF0
aF0
aF0
aI01
aF0
aF0
aF0
aF0
aI00
aF0
aF0
aF0
aF507.58999999999997
aI01
aF0
aF0
aF0
aF0
aI01
aF0
aF0
aF0
aF0
aI01
aF0
aF0
aF0
aF0
aI00
aF0
aF43.979999999999997
aF0
aF160.84999999999999
aI01
aF0
aF0
aF0
aF0
aI00
aF0
aF3.96
aF0
aF111.91
aI01
aF0
aF0
aF0
aF0
aI01
aF0
aF0
aF0
aF0
aI01
aF0
aF0
aF0
aF0
aI01
aF0
aF0
aF0
aF0
aI00
aF0
aF0
aF0
aF500.91000000000003
aI00
aF0
aF0
aF0
aF82.510000000000005
aI01
aF0
aF0
aF0
aF0
aI00
aF0
aF0
aF0
aF13.9
aI01
aF0
aF0
aF0
aF0
aI01
aF0
aF0
aF0
aF0
aI00
aF0
aF0
aF24.93
aF1126.51
aI01
aF0
aF0
aF0
aF0
aI01
aF0
aF0
aF0
aF0
aI01
aF0
aF0
aF0
aF0
aI00
aF0
aF0
aF0
aF115.44
aI01
aF0
aF0
aF0
aF0
aI01
aF0
aF0
aF0
aF0
aI00
aF0
aF245.69999999999999
aF0
aF259.94
aI01
aF0
aF0
aF0
aF0
aI00
aF0
aF0
aF0
aF476.57999999999998
aI01
aF0
aF0
aF0
aF0
aI00
aF0
aF0
aF11.56
aF390.29000000000002
aI01
aF0
aF0
aF0
aF0
aI01
aF0
aF0
aF0
aF0
aI00
aF0
aF0
aF0
aF857.25
aI01
aF0
aF0
aF0
aF0
aI00
aF0
aF0
aF0
aF48.969999999999999
aI01
aF0
aF0
aF0
aF0
aI01
aF0
aF0
aF0
aF0
aI01
aF0
aF0
aF0
aF0
aI01
aF0
aF0
aF0
aF0
aI01
aF0
aF0
aF0
aF0
aI01
aF0
aF0
aF0
aF0
aI01
aF0
aF0
aF0
aF0
aI01
aF0
aF0
aF0
aF0
aI01
aF0
aF0
aF0
aF0
aI01
aF0
aF0
aF0
aF0
aI01
aF0
aF0
aF0
aF0
aI01
aF0
aF0
aF0
aF0
aI01
aF0
aF0
aF0
aF0
aI00
aF0
aF0
aF48.310000000000002
aF256.56
aI01
aF0
aF0
aF0
aF0
aI00
aF0
aF0
aF23.68
aF266.52999999999997
aI01
aF0
aF0
aF0
aF0
aI01
aF0
aF0
aF0
aF0
aI01
aF0
aF0
aF0
aF0
aI01
aF0
aF0
aF0
aF0
aI00
aF0
aF0
aF16.629999999999999
aF259.08999999999997
aI01
aF0
aF0
aF0
aF0
aI00
aF0
aF0
aF93.730000000000004
aF157.52000000000001
aI01
aF0
aF0
aF0
aF0
aI01
aF0
aF0
aF0
aF0
aI01
aF0
aF0
aF0
aF0
aI01
aF0
aF0
aF0
aF0
aI01
aF0
aF0
aF0
aF0
aI00
aF0
aF0
aF0
aF419.55000000000001
aI01
aF0
aF0
aF0
aF0
aI01
aF0
aF0
aF0
aF0
aI01
aF0
aF0
aF0
aF0
aI00
aF0
aF0
aF0
aF21.859999999999999
aI01
aF0
aF0
aF0
aF0
aI00
aF0
aF103.68000000000001
aF0
aF117.70999999999999
aI01
aF0
aF0
aF0
aF0
aI01
aF0
aF0
aF0
aF0
aI01
aF0
aF0
aF0
aF0
aI01
aF0
aF0
aF0
aF0
aI01
aF0
aF0
aF0
aF0
aI01
aF0
aF0
aF0
aF0
aI00
aF0
aF0
aF0
aF497.47000000000003
aI01
aF0
aF0
aF0
aF0
aI01
aF0
aF0
aF0
aF0
aI01
aF0
aF0
aF0
aF0
aI01
aF0
aF0
aF0
aF0
aI01
aF0
aF0
aF0
aF0
aI01
aF0
aF0
aF0
aF0
aI00
aF0
aF15.890000000000001
aF0
aF94.469999999999999
aI01
aF0
aF0
aF0
aF0
aI01
aF0
aF0
aF0
aF0
aI01
aF0
aF0
aF0
aF0
aI01
aF0
aF0
aF0
aF0
aI00
aF0
aF0
aF0
aF600.75999999999999
aI01
aF0
aF0
aF0
aF0
aI00
aF0
aF0
aF0
aF438.06999999999999
aI01
aF0
aF0
aF0
aF0
aI01
aF0
aF0
aF0
aF0
aI01
aF0
aF0
aF0
aF0
aI01
aF0
aF0
aF0
aF0
aI00
aF0
aF0
aF0
aF7.9500000000000002
aI01
aF0
aF0
aF0
aF0
aI00
aF0
aF20.34
aF0
aF39.149999999999999
aI01
aF0
aF0
aF0
aF0
aI00
aF0
aF0
aF0
aF821.64999999999998
aI01
aF0
aF0
aF0
aF0
aI01
aF0
aF0
aF0
aF0
aI01
aF0
aF0
aF0
aF0
aI01
aF0
aF0
aF0
aF0
aI00
aF0
aF578.53999999999996
aF0
aF849.05999999999995
aI01
aF0
aF0
aF0
aF0
aI01
aF0
aF0
aF0
aF0
aI01
aF0
aF0
aF0
aF0
aI01
aF0
aF0
aF0
aF0
aI00
aF0
aF0
aF0
aF250.47
aI01
aF0
aF0
aF0
aF0
aI00
aF0
aF0
aF0
aF609.75
aI01
aF0
aF0
aF0
aF0
aI00
aF0
aF0
aF0
aF40.280000000000001
aI01
aF0
aF0
aF0
aF0
aI01
aF0
aF0
aF0
aF0
aI00
aF0
aF0
aF0
aF17.219999999999999
aI01
aF0
aF0
aF0
aF0
aI00
aF0
aF0
aF0
aF502.66000000000003
aI01
aF0
aF0
aF0
aF0
aI01
aF0
aF0
aF0
aF0
aI01
aF0
aF0
aF0
aF0
aI01
aF0
aF0
aF0
aF0
aI00
aF0
aF0
aF0
aF838.83000000000004
aI01
aF0
aF0
aF0
aF0
aI00
aF0
aF0
aF23.260000000000002
aF506.95999999999998
aI00
aF0
aF0
aF0
aF226.91
aI01
aF0
aF0
aF0
aF0
aI01
aF0
aF0
aF0
aF0
aI01
aF0
aF0
aF0
aF0
aI00
aF0
aF0
aF0
aF835.98000000000002
aI01
aF0
aF0
aF0
aF0
aI01
aF0
aF0
aF0
aF0
aI01
aF0
aF0
aF0
aF0
aI01
aF0
aF0
aF0
aF0
aI01
aF0
aF0
aF0
aF0
aI01
aF0
aF0
aF0
aF0
aI01
aF0
aF0
aF0
aF0
aI00
aF0
aF12.609999999999999
aF0
aF180.77000000000001
aI01
aF0
aF0
aF0
aF0
aI01
aF0
aF0
aF0
aF0
aI01
aF0
aF0
aF0
aF0
aI01
aF0
aF0
aF0
aF0
aI01
aF0
aF0
aF0
aF0
aI01
aF0
aF0
aF0
aF0
aI00
aF0
aF12.609999999999999
aF0
aF38.310000000000002
aI01
aF0
aF0
aF0
aF0
aI01
aF0
aF0
aF0
aF0
aI01
aF0
aF0
aF0
aF0
aI01
aF0
aF0
aF0
aF0
aI01
aF0
aF0
aF0
aF0
aI01
aF0
aF0
aF0
aF0
aI00
aF0
aF0
aF0
aF99.659999999999997
aI01
aF0
aF0
aF0
aF0
aI00
aF0
aF0
aF0
aF150.58000000000001
aI01
aF0
aF0
aF0
aF0
aI00
aF0
aF0
aF0
aF-16.079999999999998
aI00
aF0
aF0
aF9.1199999999999992
aF1076.9300000000001
aI01
aF0
aF0
aF0
aF0
aI00
aF0
aF390.06999999999999
aF0
aF539.42999999999995
aI01
aF0
aF0
aF0
aF0
aI01
aF0
aF0
aF0
aF0
aI01
aF0
aF0
aF0
aF0
aI01
aF0
aF0
aF0
aF0
aI00
aF0
aF0
aF0
aF35.640000000000001
aI00
aF0
aF0
aF0
aF-357.06999999999999
aI00
aF0
aF6.2599999999999998
aF0
aF7.1600000000000001
aI01
aF0
aF0
aF0
aF0
aI01
aF0
aF0
aF0
aF0
aI01
aF0
aF0
aF0
aF0
aI00
aF0
aF0
aF0
aF-135.09999999999999
aI01
aF0
aF0
aF0
aF0
aI00
aF0
aF0
aF0
aF2.7000000000000002
aI01
aF0
aF0
aF0
aF0
aI01
aF0
aF0
aF0
aF0
aI01
aF0
aF0
aF0
aF0
aI01
aF0
aF0
aF0
aF0
aI01
aF0
aF0
aF0
aF0
aI01
aF0
aF0
aF0
aF0
aI00
aF0
aF103.37
aF0
aF109.45
aI01
aF0
aF0
aF0
aF0
aI00
aF0
aF0
aF0
aF396.69999999999999
aI01
aF0
aF0
aF0
aF0
aI01
aF0
aF0
aF0
aF0
aI01
aF0
aF0
aF0
aF0
aI01
aF0
aF0
aF0
aF0
aI00
aF0
aF0
aF0
aF350.17000000000002
aI01
aF0
aF0
aF0
aF0
aI01
aF0
aF0
aF0
aF0
aI00
aF0
aF0
aF0
aF515.04999999999995
aI01
aF0
aF0
aF0
aF0
aI01
aF0
aF0
aF0
aF0
aI01
aF0
aF0
aF0
aF0
aI01
aF0
aF0
aF0
aF0
aI00
aF0
aF0
aF0
aF796.53999999999996
aI01
aF0
aF0
aF0
aF0
aI00
aF0
aF0
aF0
aF50.18
aI01
aF0
aF0
aF0
aF0
aI01
aF0
aF0
aF0
aF0
aI01
aF0
aF0
aF0
aF0
aI01
aF0
aF0
aF0
aF0
aI00
aF0
aF0
aF0
aF4.3200000000000003
aI01
aF0
aF0
aF0
aF0
aI00
aF0
aF0
aF0
aF794.07000000000005
aI01
aF0
aF0
aF0
aF0
aI01
aF0
aF0
aF0
aF0
aI01
aF0
aF0
aF0
aF0
aI01
aF0
aF0
aF0
aF0
aI00
aF0
aF0
aF0
aF1036.6099999999999
aI00
aF0
aF0
aF0
aF100.34999999999999
aI01
aF0
aF0
aF0
aF0
aI01
aF0
aF0
aF0
aF0
aI01
aF0
aF0
aF0
aF0
aI01
aF0
aF0
aF0
aF0
aI01
aF0
aF0
aF0
aF0
aI00
aF0
aF65.450000000000003
aF0
aF65.450000000000003
aI01
aF0
aF0
aF0
aF0
aI01
aF0
aF0
aF0
aF0
aI01
aF0
aF0
aF0
aF0
aI01
aF0
aF0
aF0
aF0
aI00
aF0
aF0
aF0
aF836.52999999999997
aI01
aF0
aF0
aF0
aF0
aI00
aF0
aF0
aF0
aF423.48000000000002
aI01
aF0
aF0
aF0
aF0
aI01
aF0
aF0
aF0
aF0
aI01
aF0
aF0
aF0
aF0
aI01
aF0
aF0
aF0
aF0
aI01
aF0
aF0
aF0
aF0
aI00
aF0
aF0
aF0
aF742.13
aI01
aF0
aF0
aF0
aF0
aI01
aF0
aF0
aF0
aF0
aI01
aF0
aF0
aF0
aF0
aI01
aF0
aF0
aF0
aF0
aI01
aF0
aF0
aF0
aF0
aI01
aF0
aF0
aF0
aF0
aI01
aF0
aF0
aF0
aF0
aI01
aF0
aF0
aF0
aF0
aI01
aF0
aF0
aF0
aF0
aI00
aF0
aF0
aF0
aF922.20000000000005
aI01
aF0
aF0
aF0
aF0
aI01
aF0
aF0
aF0
aF0
aI01
aF0
aF0
aF0
aF0
aI01
aF0
aF0
aF0
aF0
aI01
aF0
aF0
aF0
aF0
aI01
aF0
aF0
aF0
aF0
aI00
aF0
aF34.939999999999998
aF0
aF98.859999999999999
aI01
aF0
aF0
aF0
aF0
aI01
aF0
aF0
aF0
aF0
aI01
aF0
aF0
aF0
aF0
aI01
aF0
aF0
aF0
aF0
aI01
aF0
aF0
aF0
aF0
aI00
aF0
aF28.879999999999999
aF0
aF182.13999999999999
aI01
aF0
aF0
aF0
aF0
aI01
aF0
aF0
aF0
aF0
aI00
aF0
aF22.57
aF15.24
aF104.90000000000001
aI01
aF0
aF0
aF0
aF0
aI01
aF0
aF0
aF0
aF0
aI00
aF0
aF20.02
aF0
aF78.879999999999995
aI01
aF0
aF0
aF0
aF0
aI00
aF0
aF31.059999999999999
aF0
aF96.260000000000005
aI01
aF0
aF0
aF0
aF0
aI00
aF0
aF11.59
aF0
aF66.989999999999995
aI01
aF0
aF0
aF0
aF0
aI00
aF0
aF24.260000000000002
aF0
aF48.609999999999999
aI01
aF0
aF0
aF0
aF0
aI01
aF0
aF0
aF0
aF0
aI00
aF0
aF15.470000000000001
aF0
aF175.56999999999999
aI01
aF0
aF0
aF0
aF0
aI01
aF0
aF0
aF0
aF0
aI01
aF0
aF0
aF0
aF0
aI01
aF0
aF0
aF0
aF0
aI00
aF0
aF0
aF0
aF10
aI00
aF0
aF3.1899999999999999
aF0
aF115.34999999999999
aI01
aF0
aF0
aF0
aF0
aI01
aF0
aF0
aF0
aF0
aI00
aF0
aF3.1899999999999999
aF0
aF166.87
aI01
aF0
aF0
aF0
aF0
aI00
aF0
aF0
aF0
aF30.039999999999999
aI01
aF0
aF0
aF0
aF0
aI00
aF0
aF3.1899999999999999
aF0
aF103.45999999999999
aI01
aF0
aF0
aF0
aF0
aI01
aF0
aF0
aF0
aF0
aI00
aF0
aF3.1899999999999999
aF6.5300000000000002
aF100.67
aI01
aF0
aF0
aF0
aF0
aI01
aF0
aF0
aF0
aF0
aI00
aF0
aF3.1899999999999999
aF0
aF132.66999999999999
aI01
aF0
aF0
aF0
aF0
aI01
aF0
aF0
aF0
aF0
aI01
aF0
aF0
aF0
aF0
aI00
aF0
aF3.1899999999999999
aF0
aF125.87
aI01
aF0
aF0
aF0
aF0
aI01
aF0
aF0
aF0
aF0
aI01
aF0
aF0
aF0
aF0
aI00
aF0
aF3.1899999999999999
aF0
aF104.92
aI01
aF0
aF0
aF0
aF0
aI01
aF0
aF0
aF0
aF0
aI00
aF0
aF3.1899999999999999
aF0
aF154.97999999999999
aI01
aF0
aF0
aF0
aF0
aI01
aF0
aF0
aF0
aF0
aI00
aF0
aF0
aF0
aF129.43000000000001
aI00
aF0
aF14.15
aF0
aF63.130000000000003
aI01
aF0
aF0
aF0
aF0
aI01
aF0
aF0
aF0
aF0
aI00
aF8.5199999999999996
aF14.15
aF8.5199999999999996
aF134.90000000000001
aI01
aF0
aF0
aF0
aF0
aI01
aF0
aF0
aF0
aF0
aI01
aF0
aF0
aF0
aF0
aI00
aF0
aF14.15
aF0
aF123.90000000000001
aI01
aF0
aF0
aF0
aF0
aI01
aF0
aF0
aF0
aF0
aI00
aF0
aF14.15
aF7.0199999999999996
aF103.73
aI01
aF0
aF0
aF0
aF0
aI01
aF0
aF0
aF0
aF0
aI00
aF0
aF14.15
aF0
aF136.87
aI01
aF0
aF0
aF0
aF0
aI00
aF0
aF14.15
aF0
aF84.310000000000002
aI01
aF0
aF0
aF0
aF0
aI01
aF0
aF0
aF0
aF0
aI01
aF0
aF0
aF0
aF0
aI01
aF0
aF0
aF0
aF0
aI00
aF0
aF14.15
aF0
aF119.62
aI01
aF0
aF0
aF0
aF0
aI01
aF0
aF0
aF0
aF0
aI01
aF0
aF0
aF0
aF0
aI00
aF0
aF14.74
aF0
aF154.59
aI01
aF0
aF0
aF0
aF0
aI01
aF0
aF0
aF0
aF0
aI01
aF0
aF0
aF0
aF0
aI00
aF0
aF14.15
aF0
aF54.450000000000003
aI00
aF0
aF0
aF0
aF69.760000000000005
aI01
aF0
aF0
aF0
aF0
aI00
aF0
aF12.65
aF0
aF44.130000000000003
aI01
aF0
aF0
aF0
aF0
aI01
aF0
aF0
aF0
aF0
aI01
aF0
aF0
aF0
aF0
aI00
aF0
aF17.789999999999999
aF0
aF198
aI00
aF0
aF16.600000000000001
aF0
aF81.989999999999995
aI01
aF0
aF0
aF0
aF0
aI01
aF0
aF0
aF0
aF0
aI01
aF0
aF0
aF0
aF0
aI00
aF0
aF18.870000000000001
aF10.67
aF84.079999999999998
aI00
aF0
aF12.65
aF0
aF35.840000000000003
aI00
aF0
aF1.6499999999999999
aF0
aF52.700000000000003
aI01
aF0
aF0
aF0
aF0
aI01
aF0
aF0
aF0
aF0
aI01
aF0
aF0
aF0
aF0
aI01
aF0
aF0
aF0
aF0
aI01
aF0
aF0
aF0
aF0
aI00
aF0
aF18.190000000000001
aF0
aF143.02000000000001
aI01
aF0
aF0
aF0
aF0
aI00
aF0
aF25.190000000000001
aF0
aF110.23999999999999
aI01
aF0
aF0
aF0
aF0
aI01
aF0
aF0
aF0
aF0
aI01
aF0
aF0
aF0
aF0
aI00
aF0
aF15.5
aF0
aF132.49000000000001
aI01
aF0
aF0
aF0
aF0
aI00
aF0
aF17.789999999999999
aF0
aF131.31999999999999
aI01
aF0
aF0
aF0
aF0
aI00
aF0
aF13.800000000000001
aF8.6699999999999999
aF83.469999999999999
aI01
aF0
aF0
aF0
aF0
aI01
aF0
aF0
aF0
aF0
aI01
aF0
aF0
aF0
aF0
aI01
aF0
aF0
aF0
aF0
aI00
aF0
aF8.3100000000000005
aF0
aF109.58
aI01
aF0
aF0
aF0
aF0
aI00
aF0
aF20.539999999999999
aF0
aF65.510000000000005
aI01
aF0
aF0
aF0
aF0
aI01
aF0
aF0
aF0
aF0
aI00
aF0
aF9.1699999999999999
aF0
aF45.920000000000002
aI01
aF0
aF0
aF0
aF0
aI00
aF0
aF8.6500000000000004
aF0
aF125.89
aI01
aF0
aF0
aF0
aF0
aI01
aF0
aF0
aF0
aF0
aI00
aF0
aF22.039999999999999
aF0
aF84.019999999999996
aI01
aF0
aF0
aF0
aF0
aI01
aF0
aF0
aF0
aF0
aI01
aF0
aF0
aF0
aF0
aI00
aF0
aF30.149999999999999
aF0
aF156.28999999999999
aI01
aF0
aF0
aF0
aF0
aI01
aF0
aF0
aF0
aF0
aI00
aF0
aF24.399999999999999
aF0
aF126.77
aI01
aF0
aF0
aF0
aF0
aI01
aF0
aF0
aF0
aF0
aI00
aF0
aF12.970000000000001
aF0
aF74.5
aI01
aF0
aF0
aF0
aF0
aI01
aF0
aF0
aF0
aF0
aI01
aF0
aF0
aF0
aF0
aI00
aF0
aF20.16
aF0
aF108.98
aI01
aF0
aF0
aF0
aF0
aI01
aF0
aF0
aF0
aF0
aI00
aF0
aF7.5999999999999996
aF0
aF47.82
aI00
aF0
aF14.710000000000001
aF0
aF131.11000000000001
aI01
aF0
aF0
aF0
aF0
aI01
aF0
aF0
aF0
aF0
aI00
aF0
aF11.68
aF0
aF129.09
aI01
aF0
aF0
aF0
aF0
aI01
aF0
aF0
aF0
aF0
aI00
aF0
aF0
aF0
aF82.120000000000005
aI00
aF0
aF1.3500000000000001
aF0
aF27.48
aI01
aF0
aF0
aF0
aF0
aI01
aF0
aF0
aF0
aF0
aI00
aF0
aF1.3500000000000001
aF0
aF91.170000000000002
aI01
aF0
aF0
aF0
aF0
aI00
aF0
aF0
aF0
aF79.310000000000002
aI01
aF0
aF0
aF0
aF0
aI00
aF0
aF0
aF0
aF105.91
aI01
aF0
aF0
aF0
aF0
aI01
aF0
aF0
aF0
aF0
aI00
aF0
aF11.98
aF3.1899999999999999
aF126.14
aI01
aF0
aF0
aF0
aF0
aI01
aF0
aF0
aF0
aF0
aI01
aF0
aF0
aF0
aF0
aI00
aF0
aF0.85999999999999999
aF0
aF82.980000000000004
aI00
aF0
aF0
aF5.6900000000000004
aF25.760000000000002
aI01
aF0
aF0
aF0
aF0
aI00
aF0
aF0.42999999999999999
aF0
aF129.78999999999999
aI01
aF0
aF0
aF0
aF0
aI01
aF0
aF0
aF0
aF0
aI01
aF0
aF0
aF0
aF0
aI01
aF0
aF0
aF0
aF0
aI00
aF0
aF1.0900000000000001
aF0
aF30.949999999999999
aI01
aF0
aF0
aF0
aF0
aI01
aF0
aF0
aF0
aF0
aI01
aF0
aF0
aF0
aF0
aI00
aF0
aF0
aF2.4700000000000002
aF100.3
aI00
aF0
aF2.9500000000000002
aF0
aF57.850000000000001
aI00
aF0
aF18.84
aF0
aF24.18
aI00
aF0
aF7.75
aF0
aF90.230000000000004
aI00
aF0
aF7.75
aF0
aF24.460000000000001
aI01
aF0
aF0
aF0
aF0
aI01
aF0
aF0
aF0
aF0
aI01
aF0
aF0
aF0
aF0
aI00
aF0
aF12.73
aF0
aF99.489999999999995
aI01
aF0
aF0
aF0
aF0
aI01
aF0
aF0
aF0
aF0
aI01
aF0
aF0
aF0
aF0
aI00
aF0
aF12.73
aF0
aF125.48999999999999
aI01
aF0
aF0
aF0
aF0
aI01
aF0
aF0
aF0
aF0
aI01
aF0
aF0
aF0
aF0
aI01
aF0
aF0
aF0
aF0
aI01
aF0
aF0
aF0
aF0
aI01
aF0
aF0
aF0
aF0
aI01
aF0
aF0
aF0
aF0
aI01
aF0
aF0
aF0
aF0
aI01
aF0
aF0
aF0
aF0
aI01
aF0
aF0
aF0
aF0
aI01
aF0
aF0
aF0
aF0
aI01
aF0
aF0
aF0
aF0
aI01
aF0
aF0
aF0
aF0
aI00
aF0
aF13.640000000000001
aF0
aF78.319999999999993
aI01
aF0
aF0
aF0
aF0
aI01
aF0
aF0
aF0
aF0
aI00
aF0
aF8.9600000000000009
aF0
aF155.62
aI00
aF0
aF7.0599999999999996
aF0
aF31.600000000000001
aI01
aF0
aF0
aF0
aF0
aI00
aF0
aF7.6799999999999997
aF0
aF84.709999999999994
aI00
aF0
aF2.48
aF0
aF43.93
aI01
aF0
aF0
aF0
aF0
aI01
aF0
aF0
aF0
aF0
aI00
aF0
aF13.609999999999999
aF0
aF199.94999999999999
aI01
aF0
aF0
aF0
aF0
aI00
aF0
aF0
aF0
aF82.439999999999998
aI01
aF0
aF0
aF0
aF0
aI01
aF0
aF0
aF0
aF0
aI01
aF0
aF0
aF0
aF0
aI00
aF0
aF6.04
aF0
aF100.95
aI01
aF0
aF0
aF0
aF0
aI00
aF0
aF5.9800000000000004
aF0
aF124.2
aI00
aF0
aF2.4399999999999999
aF0
aF54.020000000000003
aI01
aF0
aF0
aF0
aF0
aI00
aF0
aF5.5099999999999998
aF6.2000000000000002
aF57.939999999999998
aI01
aF0
aF0
aF0
aF0
aI00
aF0
aF8.8499999999999996
aF0
aF26.809999999999999
aI00
aF0
aF7.2000000000000002
aF0
aF223.38999999999999
aI01
aF0
aF0
aF0
aF0
aI01
aF0
aF0
aF0
aF0
aI00
aF0
aF7.1399999999999997
aF0
aF114.84
aI01
aF0
aF0
aF0
aF0
aI01
aF0
aF0
aF0
aF0
aI00
aF0
aF6.0999999999999996
aF0
aF36.009999999999998
aI00
aF0
aF1.6499999999999999
aF0
aF161.22999999999999
aI00
aF0
aF6.1299999999999999
aF0
aF6.1299999999999999
aI00
aF0
aF6.0999999999999996
aF0
aF23.43
aI01
aF0
aF0
aF0
aF0
aI00
aF0
aF2.29
aF0
aF118.63
aI01
aF0
aF0
aF0
aF0
aI00
aF0
aF0
aF0
aF283.48000000000002
aI01
aF0
aF0
aF0
aF0
aI00
aF0
aF5.5899999999999999
aF0
aF48.840000000000003
aI01
aF0
aF0
aF0
aF0
aI00
aF0
aF5.5899999999999999
aF0
aF220.13999999999999
aI01
aF0
aF0
aF0
aF0
aI01
aF0
aF0
aF0
aF0
aI00
aF0
aF0
aF8.9499999999999993
aF57.280000000000001
aI01
aF0
aF0
aF0
aF0
aI00
aF0
aF0
aF0
aF194.16
aI01
aF0
aF0
aF0
aF0
aI01
aF0
aF0
aF0
aF0
aI01
aF0
aF0
aF0
aF0
aI01
aF0
aF0
aF0
aF0
aI00
aF0
aF0
aF0
aF156.59
aI01
aF0
aF0
aF0
aF0
aI00
aF0
aF0
aF0
aF138.47999999999999
aI01
aF0
aF0
aF0
aF0
aI01
aF0
aF0
aF0
aF0
aI00
aF0
aF0
aF0
aF241.53
aI01
aF0
aF0
aF0
aF0
aI00
aF0
aF0
aF0
aF69.879999999999995
aI01
aF0
aF0
aF0
aF0
aI00
aF0
aF0
aF80.349999999999994
aF101.56
aI01
aF0
aF0
aF0
aF0
aI00
aF0
aF0
aF0
aF10.81
aI00
aF0
aF0
aF38.399999999999999
aF234.58000000000001
aI01
aF0
aF0
aF0
aF0
aI01
aF0
aF0
aF0
aF0
aI01
aF0
aF0
aF0
aF0
aI00
aF0
aF0
aF0
aF104.79000000000001
aI01
aF0
aF0
aF0
aF0
aI01
aF0
aF0
aF0
aF0
aI00
aF0
aF0
aF0
aF234.15000000000001
aI01
aF0
aF0
aF0
aF0
aI00
aF0
aF0
aF0
aF157.68000000000001
aI01
aF0
aF0
aF0
aF0
aI01
aF0
aF0
aF0
aF0
aI00
aF0
aF8.5899999999999999
aF0
aF103.23999999999999
aI01
aF0
aF0
aF0
aF0
aI00
aF0
aF0
aF0
aF203.00999999999999
aI01
aF0
aF0
aF0
aF0
aI00
aF0
aF0
aF0
aF87.319999999999993
aI01
aF0
aF0
aF0
aF0
aI00
aF0
aF3.3199999999999998
aF0
aF142.28999999999999
aI01
aF0
aF0
aF0
aF0
aI01
aF0
aF0
aF0
aF0
aI00
aF0
aF0
aF0
aF202.18000000000001
aI01
aF0
aF0
aF0
aF0
aI01
aF0
aF0
aF0
aF0
aI01
aF0
aF0
aF0
aF0
aI00
aF0
aF6.6399999999999997
aF0
aF102.93000000000001
aI01
aF0
aF0
aF0
aF0
aI01
aF0
aF0
aF0
aF0
aI00
aF0
aF0
aF0
aF164.97999999999999
aI01
aF0
aF0
aF0
aF0
aI00
aF0
aF0
aF0
aF3.98
aI00
aF0
aF0
aF0
aF149.78
aI01
aF0
aF0
aF0
aF0
aI01
aF0
aF0
aF0
aF0
aI01
aF0
aF0
aF0
aF0
aI00
aF0
aF0
aF0
aF181.52000000000001
aI01
aF0
aF0
aF0
aF0
aI01
aF0
aF0
aF0
aF0
aI01
aF0
aF0
aF0
aF0
aI00
aF0
aF0
aF0
aF217.41999999999999
aI00
aF0
aF0
aF0
aF58.090000000000003
aI01
aF0
aF0
aF0
aF0
aI01
aF0
aF0
aF0
aF0
aI01
aF0
aF0
aF0
aF0
aI00
aF0
aF0
aF0
aF241.80000000000001
aI01
aF0
aF0
aF0
aF0
aI00
aF0
aF0
aF0
aF106.83
aI01
aF0
aF0
aF0
aF0
aI01
aF0
aF0
aF0
aF0
aI00
aF0
aF0
aF8.2599999999999998
aF137.78999999999999
aI01
aF0
aF0
aF0
aF0
aI01
aF0
aF0
aF0
aF0
aI00
aF0
aF0
aF0
aF124.41
aI01
aF0
aF0
aF0
aF0
aI00
aF0
aF0
aF0
aF34.75
aI01
aF0
aF0
aF0
aF0
aI00
aF0
aF3.8700000000000001
aF12.390000000000001
aF171.81
aI01
aF0
aF0
aF0
aF0
aI01
aF0
aF0
aF0
aF0
aI00
aF0
aF0
aF0
aF37.149999999999999
aI01
aF0
aF0
aF0
aF0
aI00
aF0
aF0
aF0
aF445.61000000000001
aI01
aF0
aF0
aF0
aF0
aI01
aF0
aF0
aF0
aF0
aI01
aF0
aF0
aF0
aF0
aI00
aF0
aF0
aF0
aF29.48
aI01
aF0
aF0
aF0
aF0
aI00
aF0
aF0
aF0
aF40.490000000000002
aI00
aF0
aF0
aF0
aF39.329999999999998
aI00
aF0
aF0
aF0
aF54.399999999999999
aI00
aF0
aF0
aF13.210000000000001
aF107.77
aI01
aF0
aF0
aF0
aF0
aI01
aF0
aF0
aF0
aF0
aI00
aF0
aF0
aF0
aF75.670000000000002
aI00
aF0
aF19.109999999999999
aF0
aF313.39999999999998
aI01
aF0
aF0
aF0
aF0
aI01
aF0
aF0
aF0
aF0
aI00
aF0
aF0
aF0
aF156.81999999999999
aI01
aF0
aF0
aF0
aF0
aI01
aF0
aF0
aF0
aF0
aI00
aF0
aF0
aF0
aF139.18000000000001
aI01
aF0
aF0
aF0
aF0
aI00
aF0
aF0
aF4.4000000000000004
aF27.66
aI01
aF0
aF0
aF0
aF0
aI01
aF0
aF0
aF0
aF0
aI01
aF0
aF0
aF0
aF0
aI01
aF0
aF0
aF0
aF0
aI00
aF0
aF0
aF0
aF121.53
aI01
aF0
aF0
aF0
aF0
aI01
aF0
aF0
aF0
aF0
aI01
aF0
aF0
aF0
aF0
aI00
aF0
aF5.8099999999999996
aF13.210000000000001
aF195.53999999999999
aI01
aF0
aF0
aF0
aF0
aI01
atb.